target datalayout = "e-m:e-p270:32:32-p271:32:32-p272:64:64-i64:64-i128:128-f80:128-n8:16:32:64-S128"
target triple = "x86_64-pc-linux-gnu"

%struct.ZDICT_cover_params_t = type { i32, i32, i32, i32, double, i32, i32, %struct.ZDICT_params_t }
%struct.ZDICT_params_t = type { i32, i32, i32 }
%struct.COVER_best_s = type { i32, i32, i64, ptr, i64, %struct.ZDICT_cover_params_t, i64 }
%struct.COVER_dictSelection = type { ptr, i64, i64 }

; Function Attrs: nounwind uwtable
define dso_local void @COVER_best_finish(ptr noundef %0, ptr noundef byval(%struct.ZDICT_cover_params_t) align 8 %1, ptr noundef byval(%struct.COVER_dictSelection) align 8 %2) #0 {
  %4 = alloca ptr, align 8
  %5 = alloca ptr, align 8
  %6 = alloca i64, align 8
  %7 = alloca i64, align 8
  %8 = alloca i32, align 4
  %9 = alloca i64, align 8
  store ptr %0, ptr %4, align 8, !tbaa !66
  call void @llvm.lifetime.start.p0(i64 8, ptr %5) #10
  %10 = getelementptr inbounds nuw %struct.COVER_dictSelection, ptr %2, i32 0, i32 0
  %11 = load ptr, ptr %10, align 8, !tbaa !74
  store ptr %11, ptr %5, align 8, !tbaa !22
  call void @llvm.lifetime.start.p0(i64 8, ptr %6) #10
  %12 = getelementptr inbounds nuw %struct.COVER_dictSelection, ptr %2, i32 0, i32 2
  %13 = load i64, ptr %12, align 8, !tbaa !76
  store i64 %13, ptr %6, align 8, !tbaa !11
  call void @llvm.lifetime.start.p0(i64 8, ptr %7) #10
  %14 = getelementptr inbounds nuw %struct.COVER_dictSelection, ptr %2, i32 0, i32 1
  %15 = load i64, ptr %14, align 8, !tbaa !77
  store i64 %15, ptr %7, align 8, !tbaa !11
  %16 = load ptr, ptr %4, align 8, !tbaa !66
  %17 = icmp ne ptr %16, null
  br i1 %17, label %19, label %18

18:                                               ; preds = %3
  store i32 1, ptr %8, align 4
  br label %93

19:                                               ; preds = %3
  call void @llvm.lifetime.start.p0(i64 8, ptr %9) #10
  %20 = load ptr, ptr %4, align 8, !tbaa !66
  %21 = getelementptr inbounds nuw %struct.COVER_best_s, ptr %20, i32 0, i32 2
  %22 = load i64, ptr %21, align 8, !tbaa !68
  %23 = add i64 %22, -1
  store i64 %23, ptr %21, align 8, !tbaa !68
  %24 = load ptr, ptr %4, align 8, !tbaa !66
  %25 = getelementptr inbounds nuw %struct.COVER_best_s, ptr %24, i32 0, i32 2
  %26 = load i64, ptr %25, align 8, !tbaa !68
  store i64 %26, ptr %9, align 8, !tbaa !11
  %27 = load i64, ptr %6, align 8, !tbaa !11
  %28 = load ptr, ptr %4, align 8, !tbaa !66
  %29 = getelementptr inbounds nuw %struct.COVER_best_s, ptr %28, i32 0, i32 6
  %30 = load i64, ptr %29, align 8, !tbaa !72
  %31 = icmp ult i64 %27, %30
  br i1 %31, label %32, label %85

32:                                               ; preds = %19
  %33 = load ptr, ptr %4, align 8, !tbaa !66
  %34 = getelementptr inbounds nuw %struct.COVER_best_s, ptr %33, i32 0, i32 3
  %35 = load ptr, ptr %34, align 8, !tbaa !70
  %36 = icmp ne ptr %35, null
  br i1 %36, label %37, label %43

37:                                               ; preds = %32
  %38 = load ptr, ptr %4, align 8, !tbaa !66
  %39 = getelementptr inbounds nuw %struct.COVER_best_s, ptr %38, i32 0, i32 4
  %40 = load i64, ptr %39, align 8, !tbaa !71
  %41 = load i64, ptr %7, align 8, !tbaa !11
  %42 = icmp ult i64 %40, %41
  br i1 %42, label %43, label %67

43:                                               ; preds = %37, %32
  %44 = load ptr, ptr %4, align 8, !tbaa !66
  %45 = getelementptr inbounds nuw %struct.COVER_best_s, ptr %44, i32 0, i32 3
  %46 = load ptr, ptr %45, align 8, !tbaa !70
  %47 = icmp ne ptr %46, null
  br i1 %47, label %48, label %52

48:                                               ; preds = %43
  %49 = load ptr, ptr %4, align 8, !tbaa !66
  %50 = getelementptr inbounds nuw %struct.COVER_best_s, ptr %49, i32 0, i32 3
  %51 = load ptr, ptr %50, align 8, !tbaa !70
  call void @free(ptr noundef %51) #10
  br label %52

52:                                               ; preds = %48, %43
  %53 = load i64, ptr %7, align 8, !tbaa !11
  %54 = call noalias ptr @malloc(i64 noundef %53) #11
  %55 = load ptr, ptr %4, align 8, !tbaa !66
  %56 = getelementptr inbounds nuw %struct.COVER_best_s, ptr %55, i32 0, i32 3
  store ptr %54, ptr %56, align 8, !tbaa !70
  %57 = load ptr, ptr %4, align 8, !tbaa !66
  %58 = getelementptr inbounds nuw %struct.COVER_best_s, ptr %57, i32 0, i32 3
  %59 = load ptr, ptr %58, align 8, !tbaa !70
  %60 = icmp ne ptr %59, null
  br i1 %60, label %66, label %61

61:                                               ; preds = %52
  %62 = load ptr, ptr %4, align 8, !tbaa !66
  %63 = getelementptr inbounds nuw %struct.COVER_best_s, ptr %62, i32 0, i32 6
  store i64 -1, ptr %63, align 8, !tbaa !72
  %64 = load ptr, ptr %4, align 8, !tbaa !66
  %65 = getelementptr inbounds nuw %struct.COVER_best_s, ptr %64, i32 0, i32 4
  store i64 0, ptr %65, align 8, !tbaa !71
  store i32 1, ptr %8, align 4
  br label %90

66:                                               ; preds = %52
  br label %67

67:                                               ; preds = %66, %37
  %68 = load ptr, ptr %5, align 8, !tbaa !22
  %69 = icmp ne ptr %68, null
  br i1 %69, label %70, label %84

70:                                               ; preds = %67
  %71 = load ptr, ptr %4, align 8, !tbaa !66
  %72 = getelementptr inbounds nuw %struct.COVER_best_s, ptr %71, i32 0, i32 3
  %73 = load ptr, ptr %72, align 8, !tbaa !70
  %74 = load ptr, ptr %5, align 8, !tbaa !22
  %75 = load i64, ptr %7, align 8, !tbaa !11
  call void @llvm.memcpy.p0.p0.i64(ptr align 1 %73, ptr align 1 %74, i64 %75, i1 false)
  %76 = load i64, ptr %7, align 8, !tbaa !11
  %77 = load ptr, ptr %4, align 8, !tbaa !66
  %78 = getelementptr inbounds nuw %struct.COVER_best_s, ptr %77, i32 0, i32 4
  store i64 %76, ptr %78, align 8, !tbaa !71
  %79 = load ptr, ptr %4, align 8, !tbaa !66
  %80 = getelementptr inbounds nuw %struct.COVER_best_s, ptr %79, i32 0, i32 5
  call void @llvm.memcpy.p0.p0.i64(ptr align 8 %80, ptr align 8 %1, i64 48, i1 false), !tbaa.struct !78
  %81 = load i64, ptr %6, align 8, !tbaa !11
  %82 = load ptr, ptr %4, align 8, !tbaa !66
  %83 = getelementptr inbounds nuw %struct.COVER_best_s, ptr %82, i32 0, i32 6
  store i64 %81, ptr %83, align 8, !tbaa !72
  br label %84

84:                                               ; preds = %70, %67
  br label %85

85:                                               ; preds = %84, %19
  %86 = load i64, ptr %9, align 8, !tbaa !11
  %87 = icmp eq i64 %86, 0
  br i1 %87, label %88, label %89

88:                                               ; preds = %85
  br label %89

89:                                               ; preds = %88, %85
  store i32 0, ptr %8, align 4
  br label %90

90:                                               ; preds = %89, %61
  call void @llvm.lifetime.end.p0(i64 8, ptr %9) #10
  %91 = load i32, ptr %8, align 4
  switch i32 %91, label %93 [
    i32 0, label %92
  ]

92:                                               ; preds = %90
  store i32 0, ptr %8, align 4
  br label %93

93:                                               ; preds = %92, %90, %18
  call void @llvm.lifetime.end.p0(i64 8, ptr %7) #10
  call void @llvm.lifetime.end.p0(i64 8, ptr %6) #10
  call void @llvm.lifetime.end.p0(i64 8, ptr %5) #10
  %94 = load i32, ptr %8, align 4
  switch i32 %94, label %96 [
    i32 0, label %95
    i32 1, label %95
  ]

95:                                               ; preds = %93, %93
  ret void

96:                                               ; preds = %93
  unreachable
}